target datalayout = "e-m:e-p270:32:32-p271:32:32-p272:64:64-i64:64-i128:128-f80:128-n8:16:32:64-S128"
target triple = "x86_64-pc-linux-gnu"

; Function Attrs: nounwind sspstrong uwtable
define dso_local ptr @rb_enc_path_last_separator(ptr noundef nonnull %0, ptr noundef nonnull %1, ptr noundef nonnull %2) #0 {
  %4 = alloca ptr, align 8
  %5 = alloca ptr, align 8
  %6 = alloca ptr, align 8
  %7 = alloca ptr, align 8
  %8 = alloca ptr, align 8
  %9 = alloca i32, align 4
  store ptr %0, ptr %4, align 8, !tbaa !16
  store ptr %1, ptr %5, align 8, !tbaa !16
  store ptr %2, ptr %6, align 8, !tbaa !20
  call void @llvm.lifetime.start.p0(i64 8, ptr %7) #24
  store ptr null, ptr %7, align 8, !tbaa !16
  br label %10

10:                                               ; preds = %54, %3
  %11 = load ptr, ptr %4, align 8, !tbaa !16
  %12 = load ptr, ptr %5, align 8, !tbaa !16
  %13 = icmp ult ptr %11, %12
  br i1 %13, label %14, label %55

14:                                               ; preds = %10
  %15 = load ptr, ptr %4, align 8, !tbaa !16
  %16 = load i8, ptr %15, align 1, !tbaa !27
  %17 = sext i8 %16 to i32
  %18 = icmp eq i32 %17, 47
  br i1 %18, label %19, label %46

19:                                               ; preds = %14
  call void @llvm.lifetime.start.p0(i64 8, ptr %8) #24
  %20 = load ptr, ptr %4, align 8, !tbaa !16
  %21 = getelementptr i8, ptr %20, i32 1
  store ptr %21, ptr %4, align 8, !tbaa !16
  store ptr %20, ptr %8, align 8, !tbaa !16
  br label %22

22:                                               ; preds = %33, %19
  %23 = load ptr, ptr %4, align 8, !tbaa !16
  %24 = load ptr, ptr %5, align 8, !tbaa !16
  %25 = icmp ult ptr %23, %24
  br i1 %25, label %26, label %31

26:                                               ; preds = %22
  %27 = load ptr, ptr %4, align 8, !tbaa !16
  %28 = load i8, ptr %27, align 1, !tbaa !27
  %29 = sext i8 %28 to i32
  %30 = icmp eq i32 %29, 47
  br label %31

31:                                               ; preds = %26, %22
  %32 = phi i1 [ false, %22 ], [ %30, %26 ]
  br i1 %32, label %33, label %36

33:                                               ; preds = %31
  %34 = load ptr, ptr %4, align 8, !tbaa !16
  %35 = getelementptr i8, ptr %34, i32 1
  store ptr %35, ptr %4, align 8, !tbaa !16
  br label %22, !llvm.loop !69

36:                                               ; preds = %31
  %37 = load ptr, ptr %4, align 8, !tbaa !16
  %38 = load ptr, ptr %5, align 8, !tbaa !16
  %39 = icmp uge ptr %37, %38
  br i1 %39, label %40, label %41

40:                                               ; preds = %36
  store i32 3, ptr %9, align 4
  br label %43

41:                                               ; preds = %36
  %42 = load ptr, ptr %8, align 8, !tbaa !16
  store ptr %42, ptr %7, align 8, !tbaa !16
  store i32 0, ptr %9, align 4
  br label %43

43:                                               ; preds = %41, %40
  call void @llvm.lifetime.end.p0(i64 8, ptr %8) #24
  %44 = load i32, ptr %9, align 4
  switch i32 %44, label %57 [
    i32 0, label %45
    i32 3, label %55
  ]

45:                                               ; preds = %43
  br label %54

46:                                               ; preds = %14
  %47 = load ptr, ptr %4, align 8, !tbaa !16
  %48 = load ptr, ptr %4, align 8, !tbaa !16
  %49 = load ptr, ptr %5, align 8, !tbaa !16
  %50 = load ptr, ptr %6, align 8, !tbaa !20
  %51 = call i32 @rb_enc_mbclen(ptr noundef %48, ptr noundef %49, ptr noundef %50)
  %52 = sext i32 %51 to i64
  %53 = getelementptr i8, ptr %47, i64 %52
  store ptr %53, ptr %4, align 8, !tbaa !16
  br label %54

54:                                               ; preds = %46, %45
  br label %10, !llvm.loop !70

55:                                               ; preds = %43, %10
  %56 = load ptr, ptr %7, align 8, !tbaa !16
  store i32 1, ptr %9, align 4
  call void @llvm.lifetime.end.p0(i64 8, ptr %7) #24
  ret ptr %56

57:                                               ; preds = %43
  unreachable
}

; Function Attrs: nounwind sspstrong uwtable
define dso_local ptr @ruby_enc_find_extname(ptr noundef nonnull %0, ptr noundef %1, ptr noundef nonnull %2) #0 {
  %4 = alloca ptr, align 8
  %5 = alloca ptr, align 8
  %6 = alloca ptr, align 8
  %7 = alloca ptr, align 8
  %8 = alloca ptr, align 8
  %9 = alloca ptr, align 8
  store ptr %0, ptr %4, align 8, !tbaa !16
  store ptr %1, ptr %5, align 8, !tbaa !13
  store ptr %2, ptr %6, align 8, !tbaa !20
  call void @llvm.lifetime.start.p0(i64 8, ptr %7) #24
  call void @llvm.lifetime.start.p0(i64 8, ptr %8) #24
  call void @llvm.lifetime.start.p0(i64 8, ptr %9) #24
  %10 = load ptr, ptr %4, align 8, !tbaa !16
  %11 = load ptr, ptr %5, align 8, !tbaa !13
  %12 = icmp ne ptr %11, null
  br i1 %12, label %13, label %16

13:                                               ; preds = %3
  %14 = load ptr, ptr %5, align 8, !tbaa !13
  %15 = load i64, ptr %14, align 8, !tbaa !7
  br label %19

16:                                               ; preds = %3
  %17 = load ptr, ptr %4, align 8, !tbaa !16
  %18 = call i64 @strlen(ptr noundef %17) #25
  br label %19

19:                                               ; preds = %16, %13
  %20 = phi i64 [ %15, %13 ], [ %18, %16 ]
  %21 = getelementptr i8, ptr %10, i64 %20
  store ptr %21, ptr %9, align 8, !tbaa !16
  %22 = load ptr, ptr %4, align 8, !tbaa !16
  %23 = load ptr, ptr %9, align 8, !tbaa !16
  %24 = load ptr, ptr %6, align 8, !tbaa !20
  %25 = call ptr @rb_enc_path_last_separator(ptr noundef %22, ptr noundef %23, ptr noundef %24)
  store ptr %25, ptr %7, align 8, !tbaa !16
  %26 = load ptr, ptr %7, align 8, !tbaa !16
  %27 = icmp ne ptr %26, null
  br i1 %27, label %30, label %28

28:                                               ; preds = %19
  %29 = load ptr, ptr %4, align 8, !tbaa !16
  store ptr %29, ptr %7, align 8, !tbaa !16
  br label %40

30:                                               ; preds = %19
  br label %31

31:                                               ; preds = %34, %30
  %32 = load ptr, ptr %7, align 8, !tbaa !16
  %33 = getelementptr i8, ptr %32, i32 1
  store ptr %33, ptr %7, align 8, !tbaa !16
  store ptr %33, ptr %4, align 8, !tbaa !16
  br label %34

34:                                               ; preds = %31
  %35 = load ptr, ptr %7, align 8, !tbaa !16
  %36 = load i8, ptr %35, align 1, !tbaa !27
  %37 = sext i8 %36 to i32
  %38 = icmp eq i32 %37, 47
  br i1 %38, label %31, label %39, !llvm.loop !98

39:                                               ; preds = %34
  br label %40

40:                                               ; preds = %39, %28
  store ptr null, ptr %8, align 8, !tbaa !16
  br label %41

41:                                               ; preds = %53, %40
  %42 = load ptr, ptr %7, align 8, !tbaa !16
  %43 = load i8, ptr %42, align 1, !tbaa !27
  %44 = sext i8 %43 to i32
  %45 = icmp ne i32 %44, 0
  br i1 %45, label %46, label %51

46:                                               ; preds = %41
  %47 = load ptr, ptr %7, align 8, !tbaa !16
  %48 = load i8, ptr %47, align 1, !tbaa !27
  %49 = sext i8 %48 to i32
  %50 = icmp eq i32 %49, 46
  br label %51

51:                                               ; preds = %46, %41
  %52 = phi i1 [ false, %41 ], [ %50, %46 ]
  br i1 %52, label %53, label %56

53:                                               ; preds = %51
  %54 = load ptr, ptr %7, align 8, !tbaa !16
  %55 = getelementptr i8, ptr %54, i32 1
  store ptr %55, ptr %7, align 8, !tbaa !16
  br label %41, !llvm.loop !99

56:                                               ; preds = %51
  br label %57

57:                                               ; preds = %75, %56
  %58 = load ptr, ptr %7, align 8, !tbaa !16
  %59 = load i8, ptr %58, align 1, !tbaa !27
  %60 = icmp ne i8 %59, 0
  br i1 %60, label %61, label %83

61:                                               ; preds = %57
  %62 = load ptr, ptr %7, align 8, !tbaa !16
  %63 = load i8, ptr %62, align 1, !tbaa !27
  %64 = sext i8 %63 to i32
  %65 = icmp eq i32 %64, 46
  br i1 %65, label %66, label %68

66:                                               ; preds = %61
  %67 = load ptr, ptr %7, align 8, !tbaa !16
  store ptr %67, ptr %8, align 8, !tbaa !16
  br label %75

68:                                               ; preds = %61
  %69 = load ptr, ptr %7, align 8, !tbaa !16
  %70 = load i8, ptr %69, align 1, !tbaa !27
  %71 = sext i8 %70 to i32
  %72 = icmp eq i32 %71, 47
  br i1 %72, label %73, label %74

73:                                               ; preds = %68
  br label %83

74:                                               ; preds = %68
  br label %75

75:                                               ; preds = %74, %66
  %76 = load ptr, ptr %7, align 8, !tbaa !16
  %77 = load ptr, ptr %7, align 8, !tbaa !16
  %78 = load ptr, ptr %9, align 8, !tbaa !16
  %79 = load ptr, ptr %6, align 8, !tbaa !20
  %80 = call i32 @rb_enc_mbclen(ptr noundef %77, ptr noundef %78, ptr noundef %79)
  %81 = sext i32 %80 to i64
  %82 = getelementptr i8, ptr %76, i64 %81
  store ptr %82, ptr %7, align 8, !tbaa !16
  br label %57, !llvm.loop !100

83:                                               ; preds = %73, %57
  %84 = load ptr, ptr %5, align 8, !tbaa !13
  %85 = icmp ne ptr %84, null
  br i1 %85, label %86, label %111

86:                                               ; preds = %83
  %87 = load ptr, ptr %8, align 8, !tbaa !16
  %88 = icmp ne ptr %87, null
  br i1 %88, label %89, label %93

89:                                               ; preds = %86
  %90 = load ptr, ptr %8, align 8, !tbaa !16
  %91 = load ptr, ptr %4, align 8, !tbaa !16
  %92 = icmp eq ptr %90, %91
  br i1 %92, label %93, label %95

93:                                               ; preds = %89, %86
  %94 = load ptr, ptr %5, align 8, !tbaa !13
  store i64 0, ptr %94, align 8, !tbaa !7
  br label %110

95:                                               ; preds = %89
  %96 = load ptr, ptr %8, align 8, !tbaa !16
  %97 = getelementptr i8, ptr %96, i64 1
  %98 = load ptr, ptr %7, align 8, !tbaa !16
  %99 = icmp eq ptr %97, %98
  br i1 %99, label %100, label %102

100:                                              ; preds = %95
  %101 = load ptr, ptr %5, align 8, !tbaa !13
  store i64 1, ptr %101, align 8, !tbaa !7
  br label %109

102:                                              ; preds = %95
  %103 = load ptr, ptr %7, align 8, !tbaa !16
  %104 = load ptr, ptr %8, align 8, !tbaa !16
  %105 = ptrtoint ptr %103 to i64
  %106 = ptrtoint ptr %104 to i64
  %107 = sub i64 %105, %106
  %108 = load ptr, ptr %5, align 8, !tbaa !13
  store i64 %107, ptr %108, align 8, !tbaa !7
  br label %109

109:                                              ; preds = %102, %100
  br label %110

110:                                              ; preds = %109, %93
  br label %111

111:                                              ; preds = %110, %83
  %112 = load ptr, ptr %8, align 8, !tbaa !16
  call void @llvm.lifetime.end.p0(i64 8, ptr %9) #24
  call void @llvm.lifetime.end.p0(i64 8, ptr %8) #24
  call void @llvm.lifetime.end.p0(i64 8, ptr %7) #24
  ret ptr %112
}