; Function Attrs: nounwind sspstrong uwtable
define dso_local ptr @ruby_enc_find_extname(ptr noundef nonnull %0, ptr noundef captures(address_is_null) %1, ptr noundef nonnull %2) local_unnamed_addr #0 {
  %.not = icmp eq ptr %1, null
  br i1 %.not, label %6, label %4

4:                                                ; preds = %3
  %5 = load i64, ptr %1, align 8, !tbaa !12
  br label %8

6:                                                ; preds = %3
  %7 = tail call i64 @strlen(ptr noundef nonnull dereferenceable(1) %0) #23
  br label %8

8:                                                ; preds = %6, %4
  %9 = phi i64 [ %5, %4 ], [ %7, %6 ]
  %10 = getelementptr i8, ptr %0, i64 %9
  %11 = icmp ult ptr %0, %10
  br i1 %11, label %.lr.ph.i, label %rb_enc_path_last_separator.exit.thread

.lr.ph.i:                                         ; preds = %8, %.critedge.thread.i
  %.01627.i = phi ptr [ %.2.i, %.critedge.thread.i ], [ %0, %8 ]
  %.01726.i = phi ptr [ %.3.i, %.critedge.thread.i ], [ null, %8 ]
  %12 = load i8, ptr %.01627.i, align 1, !tbaa !27
  %13 = icmp eq i8 %12, 47
  br i1 %13, label %.preheader.i, label %18

.preheader.i:                                     ; preds = %.lr.ph.i, %15
  %.016.pn.i = phi ptr [ %.1.i, %15 ], [ %.01627.i, %.lr.ph.i ]
  %.1.i = getelementptr i8, ptr %.016.pn.i, i64 1
  %14 = icmp ult ptr %.1.i, %10
  br i1 %14, label %15, label %rb_enc_path_last_separator.exit

15:                                               ; preds = %.preheader.i
  %16 = load i8, ptr %.1.i, align 1, !tbaa !27
  %17 = icmp eq i8 %16, 47
  br i1 %17, label %.preheader.i, label %.critedge.thread.i, !llvm.loop !89

18:                                               ; preds = %.lr.ph.i
  %19 = tail call i32 @rb_enc_mbclen(ptr noundef nonnull %.01627.i, ptr noundef nonnull %10, ptr noundef nonnull %2) #22
  %20 = sext i32 %19 to i64
  %21 = getelementptr i8, ptr %.01627.i, i64 %20
  br label %.critedge.thread.i

.critedge.thread.i:                               ; preds = %15, %18
  %.3.i = phi ptr [ %.01726.i, %18 ], [ %.01627.i, %15 ]
  %.2.i = phi ptr [ %21, %18 ], [ %.1.i, %15 ]
  %22 = icmp ult ptr %.2.i, %10
  br i1 %22, label %.lr.ph.i, label %rb_enc_path_last_separator.exit, !llvm.loop !90

rb_enc_path_last_separator.exit:                  ; preds = %.critedge.thread.i, %.preheader.i
  %.01725.i = phi ptr [ %.01726.i, %.preheader.i ], [ %.3.i, %.critedge.thread.i ]
  %.not43 = icmp eq ptr %.01725.i, null
  br i1 %.not43, label %rb_enc_path_last_separator.exit.thread, label %.preheader

.preheader:                                       ; preds = %rb_enc_path_last_separator.exit, %.preheader
  %.136 = phi ptr [ %23, %.preheader ], [ %.01725.i, %rb_enc_path_last_separator.exit ]
  %23 = getelementptr i8, ptr %.136, i64 1
  %24 = load i8, ptr %23, align 1, !tbaa !27
  %25 = icmp eq i8 %24, 47
  br i1 %25, label %.preheader, label %rb_enc_path_last_separator.exit.thread, !llvm.loop !174

rb_enc_path_last_separator.exit.thread:           ; preds = %.preheader, %8, %rb_enc_path_last_separator.exit
  %.0 = phi ptr [ %0, %rb_enc_path_last_separator.exit ], [ %0, %8 ], [ %23, %.preheader ]
  br label %26

26:                                               ; preds = %26, %rb_enc_path_last_separator.exit.thread
  %.2 = phi ptr [ %.0, %rb_enc_path_last_separator.exit.thread ], [ %28, %26 ]
  %27 = load i8, ptr %.2, align 1, !tbaa !27
  %cond = icmp eq i8 %27, 46
  %28 = getelementptr i8, ptr %.2, i64 1
  br i1 %cond, label %26, label %.critedge, !llvm.loop !175

.critedge:                                        ; preds = %26, %30
  %29 = phi i8 [ %.pr, %30 ], [ %27, %26 ]
  %.3 = phi ptr [ %33, %30 ], [ %.2, %26 ]
  %.034 = phi ptr [ %.1, %30 ], [ null, %26 ]
  switch i8 %29, label %.fold.split [
    i8 0, label %34
    i8 46, label %30
    i8 47, label %34
  ]

.fold.split:                                      ; preds = %.critedge
  br label %30

30:                                               ; preds = %.critedge, %.fold.split
  %.1 = phi ptr [ %.3, %.critedge ], [ %.034, %.fold.split ]
  %31 = tail call i32 @rb_enc_mbclen(ptr noundef nonnull %.3, ptr noundef nonnull %10, ptr noundef nonnull %2) #22
  %32 = sext i32 %31 to i64
  %33 = getelementptr i8, ptr %.3, i64 %32
  %.pr = load i8, ptr %33, align 1, !tbaa !27
  br label %.critedge, !llvm.loop !176

34:                                               ; preds = %.critedge, %.critedge
  br i1 %.not, label %44, label %35

35:                                               ; preds = %34
  %.not46 = icmp eq ptr %.034, null
  %36 = icmp eq ptr %.034, %.0
  %or.cond = or i1 %.not46, %36
  br i1 %or.cond, label %.sink.split, label %37

37:                                               ; preds = %35
  %38 = getelementptr i8, ptr %.034, i64 1
  %39 = icmp eq ptr %38, %.3
  br i1 %39, label %.sink.split, label %40

40:                                               ; preds = %37
  %41 = ptrtoint ptr %.3 to i64
  %42 = ptrtoint ptr %.034 to i64
  %43 = sub i64 %41, %42
  br label %.sink.split

.sink.split:                                      ; preds = %37, %35, %40
  %.sink = phi i64 [ %43, %40 ], [ 0, %35 ], [ 1, %37 ]
  store i64 %.sink, ptr %1, align 8, !tbaa !12
  br label %44

44:                                               ; preds = %.sink.split, %34
  ret ptr %.034
}